(lp0
S'poi'
p1
aS'salary'
p2
aS'bonus'
p3
aS'expenses'
p4
aS'loan_advances'
p5
aS'long_term_incentive'
p6
aS'exercised_stock_options'
p7
aS'shared_receipt_with_poi'
p8
aS'from_poi_to_this_person'
p9
aS'from_this_person_to_poi'
p10
a.