(lp0
S'poi'
p1
aS'salary'
p2
aS'bonus'
p3
aS'expenses'
p4
aS'director_fees'
p5
aS'to_messages'
p6
aS'restricted_stock'
p7
aS'loan_advances'
p8
aS'deferred_income'
p9
aS'deferral_payments'
p10
aS'long_term_incentive'
p11
aS'from_messages'
p12
aS'total_payments'
p13
aS'restricted_stock_deferred'
p14
aS'other'
p15
aS'exercised_stock_options'
p16
aS'shared_receipt_with_poi'
p17
aS'from_poi_to_this_person'
p18
aS'from_this_person_to_poi'
p19
a.